target datalayout = "e-m:e-p270:32:32-p271:32:32-p272:64:64-i64:64-i128:128-f80:128-n8:16:32:64-S128"
target triple = "x86_64-pc-linux-gnu"

@.str.11 = private unnamed_addr constant [49 x i8] c"../cpython/Modules/_testinternalcapi/test_lock.c\00", align 1
@.str.30 = private unnamed_addr constant [14 x i8] c"*counter == 5\00", align 1
@__PRETTY_FUNCTION__.init_maybe_fail = private unnamed_addr constant [28 x i8] c"int init_maybe_fail(void *)\00", align 1

; Function Attrs: nounwind uwtable
define internal i32 @init_maybe_fail(ptr noundef %0) #0 {
  %2 = alloca i32, align 4
  %3 = alloca ptr, align 8
  %4 = alloca ptr, align 8
  %5 = alloca i32, align 4
  store ptr %0, ptr %3, align 8, !tbaa !47
  call void @llvm.lifetime.start.p0(i64 8, ptr %4) #8
  %6 = load ptr, ptr %3, align 8, !tbaa !47
  store ptr %6, ptr %4, align 8, !tbaa !50
  %7 = load ptr, ptr %4, align 8, !tbaa !50
  %8 = load i32, ptr %7, align 4, !tbaa !14
  %9 = add i32 %8, 1
  store i32 %9, ptr %7, align 4, !tbaa !14
  %10 = load ptr, ptr %4, align 8, !tbaa !50
  %11 = load i32, ptr %10, align 4, !tbaa !14
  %12 = icmp slt i32 %11, 5
  br i1 %12, label %13, label %14

13:                                               ; preds = %1
  store i32 -1, ptr %2, align 4
  store i32 1, ptr %5, align 4
  br label %22

14:                                               ; preds = %1
  %15 = load ptr, ptr %4, align 8, !tbaa !50
  %16 = load i32, ptr %15, align 4, !tbaa !14
  %17 = icmp eq i32 %16, 5
  br i1 %17, label %18, label %19

18:                                               ; preds = %14
  br label %21

19:                                               ; preds = %14
  call void @__assert_fail(ptr noundef @.str.30, ptr noundef @.str.11, i32 noundef 360, ptr noundef @__PRETTY_FUNCTION__.init_maybe_fail) #9
  unreachable

20:                                               ; No predecessors!
  br label %21

21:                                               ; preds = %20, %18
  store i32 0, ptr %2, align 4
  store i32 1, ptr %5, align 4
  br label %22

22:                                               ; preds = %21, %13
  call void @llvm.lifetime.end.p0(i64 8, ptr %4) #8
  %23 = load i32, ptr %2, align 4
  ret i32 %23
}