; Function Attrs: nounwind uwtable
define internal range(i32 -1, 1) i32 @init_maybe_fail(ptr noundef captures(none) %0) #0 {
  %2 = load i32, ptr %0, align 4, !tbaa !27
  %3 = add i32 %2, 1
  store i32 %3, ptr %0, align 4, !tbaa !27
  %4 = icmp slt i32 %3, 5
  br i1 %4, label %8, label %5

5:                                                ; preds = %1
  %6 = icmp eq i32 %3, 5
  br i1 %6, label %8, label %7

7:                                                ; preds = %5
  tail call void @__assert_fail(ptr noundef nonnull @.str.30, ptr noundef nonnull @.str.11, i32 noundef 360, ptr noundef nonnull @__PRETTY_FUNCTION__.init_maybe_fail) #7
  unreachable

8:                                                ; preds = %5, %1
  %.0 = phi i32 [ -1, %1 ], [ 0, %5 ]
  ret i32 %.0
}